target datalayout = "e-m:e-p270:32:32-p271:32:32-p272:64:64-i64:64-i128:128-f80:128-n8:16:32:64-S128"
target triple = "x86_64-pc-linux-gnu"

%struct.Rwr_Node_t_ = type <{ i32, i32, i16, i16, i16, i32, [6 x i8], ptr, ptr, ptr }>

; Function Attrs: nounwind uwtable
define void @Rwr_ListAddToTail(ptr noundef %0, ptr noundef %1) #0 {
  %3 = alloca ptr, align 8
  %4 = alloca ptr, align 8
  %5 = alloca ptr, align 8
  store ptr %0, ptr %3, align 8, !tbaa !46
  store ptr %1, ptr %4, align 8, !tbaa !28
  call void @llvm.lifetime.start.p0(i64 8, ptr %5) #9
  %6 = load ptr, ptr %3, align 8, !tbaa !46
  %7 = load ptr, ptr %6, align 8, !tbaa !28
  store ptr %7, ptr %5, align 8, !tbaa !28
  br label %8

8:                                                ; preds = %14, %2
  %9 = load ptr, ptr %5, align 8, !tbaa !28
  %10 = icmp ne ptr %9, null
  br i1 %10, label %11, label %18

11:                                               ; preds = %8
  %12 = load ptr, ptr %5, align 8, !tbaa !28
  %13 = getelementptr inbounds nuw %struct.Rwr_Node_t_, ptr %12, i32 0, i32 9
  store ptr %13, ptr %3, align 8, !tbaa !46
  br label %14

14:                                               ; preds = %11
  %15 = load ptr, ptr %5, align 8, !tbaa !28
  %16 = getelementptr inbounds nuw %struct.Rwr_Node_t_, ptr %15, i32 0, i32 9
  %17 = load ptr, ptr %16, align 8, !tbaa !47
  store ptr %17, ptr %5, align 8, !tbaa !28
  br label %8, !llvm.loop !48

18:                                               ; preds = %8
  %19 = load ptr, ptr %4, align 8, !tbaa !28
  %20 = load ptr, ptr %3, align 8, !tbaa !46
  store ptr %19, ptr %20, align 8, !tbaa !28
  call void @llvm.lifetime.end.p0(i64 8, ptr %5) #9
  ret void
}