; Function Attrs: nofree norecurse nosync nounwind memory(readwrite, inaccessiblemem: none) uwtable
define void @Rwr_ListAddToTail(ptr noundef captures(none) %0, ptr noundef %1) local_unnamed_addr #7 {
  br label %3

3:                                                ; preds = %3, %2
  %.06 = phi ptr [ %0, %2 ], [ %4, %3 ]
  %.0 = load ptr, ptr %.06, align 8, !tbaa !44
  %.not = icmp eq ptr %.0, null
  %4 = getelementptr inbounds nuw i8, ptr %.0, i64 40
  br i1 %.not, label %5, label %3, !llvm.loop !45

5:                                                ; preds = %3
  store ptr %1, ptr %.06, align 8, !tbaa !44
  ret void
}